target datalayout = "e-m:e-p270:32:32-p271:32:32-p272:64:64-i64:64-i128:128-f80:128-n8:16:32:64-S128"
target triple = "x86_64-pc-linux-gnu"

%struct.H5P_libclass_t = type { ptr, i32, ptr, ptr, ptr, ptr, ptr, ptr, ptr, ptr, ptr, ptr, ptr }
%struct.H5VL_loc_params_t = type { i32, i32, %union.anon.7 }
%union.anon.7 = type { %struct.H5VL_loc_by_idx }
%struct.H5VL_loc_by_idx = type { ptr, i32, i32, i64, i64 }
%struct.H5VL_loc_by_name = type { ptr, i64 }

@.str.2 = private unnamed_addr constant [101 x i8] c"generated/home/dtcxzyw/WorkSpace/Projects/compilers/llvm-opt-benchmark/bench/hdf5/hdf5/src/H5VLint.c\00", align 1
@H5E_VOL_g = external global i64, align 8
@H5E_CANTSET_g = external global i64, align 8
@H5E_BADVALUE_g = external global i64, align 8
@H5E_BADTYPE_g = external global i64, align 8
@H5E_ARGS_g = external global i64, align 8
@.str.70 = private unnamed_addr constant [28 x i8] c"invalid location identifier\00", align 1
@.str.96 = private unnamed_addr constant [36 x i8] c"can't set access property list info\00", align 1
@__func__.H5VL_setup_name_args = private unnamed_addr constant [21 x i8] c"H5VL_setup_name_args\00", align 1
@.str.97 = private unnamed_addr constant [30 x i8] c"name parameter cannot be NULL\00", align 1
@.str.98 = private unnamed_addr constant [41 x i8] c"name parameter cannot be an empty string\00", align 1
@H5P_CLS_LACC = external constant [1 x %struct.H5P_libclass_t], align 16

; Function Attrs: nounwind uwtable
define i32 @H5VL_setup_name_args(i64 noundef %0, ptr noundef %1, i1 noundef zeroext %2, i64 noundef %3, ptr noundef %4, ptr noundef %5) #0 {
  %7 = alloca i64, align 8
  %8 = alloca ptr, align 8
  %9 = alloca i8, align 1
  %10 = alloca i64, align 8
  %11 = alloca ptr, align 8
  %12 = alloca ptr, align 8
  %13 = alloca i32, align 4
  %14 = alloca i8, align 1
  store i64 %0, ptr %7, align 8
  store ptr %1, ptr %8, align 8
  %15 = zext i1 %2 to i8
  store i8 %15, ptr %9, align 1
  store i64 %3, ptr %10, align 8
  store ptr %4, ptr %11, align 8
  store ptr %5, ptr %12, align 8
  store i32 0, ptr %13, align 4
  store i8 0, ptr %14, align 1
  %16 = load ptr, ptr %8, align 8
  %17 = icmp ne ptr %16, null
  br i1 %17, label %33, label %18

18:                                               ; preds = %6
  br label %19

19:                                               ; preds = %18
  br label %20

20:                                               ; preds = %19
  br label %21

21:                                               ; preds = %20
  %22 = load i64, ptr @H5E_ARGS_g, align 8
  %23 = load i64, ptr @H5E_BADVALUE_g, align 8
  %24 = call i32 (ptr, ptr, i32, i64, i64, ptr, ...) @H5E_printf_stack(ptr noundef @.str.2, ptr noundef @__func__.H5VL_setup_name_args, i32 noundef 2667, i64 noundef %22, i64 noundef %23, ptr noundef @.str.97)
  br label %25

25:                                               ; preds = %21
  store i8 1, ptr %14, align 1
  %26 = load i8, ptr %14, align 1
  %27 = trunc i8 %26 to i1
  %28 = zext i1 %27 to i8
  store i8 %28, ptr %14, align 1
  br label %29

29:                                               ; preds = %25
  br label %30

30:                                               ; preds = %29
  store i32 -1, ptr %13, align 4
  br label %108

31:                                               ; No predecessors!
  br label %32

32:                                               ; preds = %31
  br label %33

33:                                               ; preds = %32, %6
  %34 = load ptr, ptr %8, align 8
  %35 = load i8, ptr %34, align 1
  %36 = icmp ne i8 %35, 0
  br i1 %36, label %52, label %37

37:                                               ; preds = %33
  br label %38

38:                                               ; preds = %37
  br label %39

39:                                               ; preds = %38
  br label %40

40:                                               ; preds = %39
  %41 = load i64, ptr @H5E_ARGS_g, align 8
  %42 = load i64, ptr @H5E_BADVALUE_g, align 8
  %43 = call i32 (ptr, ptr, i32, i64, i64, ptr, ...) @H5E_printf_stack(ptr noundef @.str.2, ptr noundef @__func__.H5VL_setup_name_args, i32 noundef 2669, i64 noundef %41, i64 noundef %42, ptr noundef @.str.98)
  br label %44

44:                                               ; preds = %40
  store i8 1, ptr %14, align 1
  %45 = load i8, ptr %14, align 1
  %46 = trunc i8 %45 to i1
  %47 = zext i1 %46 to i8
  store i8 %47, ptr %14, align 1
  br label %48

48:                                               ; preds = %44
  br label %49

49:                                               ; preds = %48
  store i32 -1, ptr %13, align 4
  br label %108

50:                                               ; No predecessors!
  br label %51

51:                                               ; preds = %50
  br label %52

52:                                               ; preds = %51, %33
  %53 = load i64, ptr %7, align 8
  %54 = load i8, ptr %9, align 1
  %55 = trunc i8 %54 to i1
  %56 = call i32 @H5CX_set_apl(ptr noundef %10, ptr noundef @H5P_CLS_LACC, i64 noundef %53, i1 noundef zeroext %55)
  %57 = icmp slt i32 %56, 0
  br i1 %57, label %58, label %73

58:                                               ; preds = %52
  br label %59

59:                                               ; preds = %58
  br label %60

60:                                               ; preds = %59
  br label %61

61:                                               ; preds = %60
  %62 = load i64, ptr @H5E_VOL_g, align 8
  %63 = load i64, ptr @H5E_CANTSET_g, align 8
  %64 = call i32 (ptr, ptr, i32, i64, i64, ptr, ...) @H5E_printf_stack(ptr noundef @.str.2, ptr noundef @__func__.H5VL_setup_name_args, i32 noundef 2673, i64 noundef %62, i64 noundef %63, ptr noundef @.str.96)
  br label %65

65:                                               ; preds = %61
  store i8 1, ptr %14, align 1
  %66 = load i8, ptr %14, align 1
  %67 = trunc i8 %66 to i1
  %68 = zext i1 %67 to i8
  store i8 %68, ptr %14, align 1
  br label %69

69:                                               ; preds = %65
  br label %70

70:                                               ; preds = %69
  store i32 -1, ptr %13, align 4
  br label %108

71:                                               ; No predecessors!
  br label %72

72:                                               ; preds = %71
  br label %73

73:                                               ; preds = %72, %52
  %74 = load i64, ptr %7, align 8
  %75 = call ptr @H5VL_vol_object(i64 noundef %74)
  %76 = load ptr, ptr %11, align 8
  store ptr %75, ptr %76, align 8
  %77 = icmp eq ptr null, %75
  br i1 %77, label %78, label %93

78:                                               ; preds = %73
  br label %79

79:                                               ; preds = %78
  br label %80

80:                                               ; preds = %79
  br label %81

81:                                               ; preds = %80
  %82 = load i64, ptr @H5E_ARGS_g, align 8
  %83 = load i64, ptr @H5E_BADTYPE_g, align 8
  %84 = call i32 (ptr, ptr, i32, i64, i64, ptr, ...) @H5E_printf_stack(ptr noundef @.str.2, ptr noundef @__func__.H5VL_setup_name_args, i32 noundef 2677, i64 noundef %82, i64 noundef %83, ptr noundef @.str.70)
  br label %85

85:                                               ; preds = %81
  store i8 1, ptr %14, align 1
  %86 = load i8, ptr %14, align 1
  %87 = trunc i8 %86 to i1
  %88 = zext i1 %87 to i8
  store i8 %88, ptr %14, align 1
  br label %89

89:                                               ; preds = %85
  br label %90

90:                                               ; preds = %89
  store i32 -1, ptr %13, align 4
  br label %108

91:                                               ; No predecessors!
  br label %92

92:                                               ; preds = %91
  br label %93

93:                                               ; preds = %92, %73
  %94 = load ptr, ptr %12, align 8
  %95 = getelementptr inbounds %struct.H5VL_loc_params_t, ptr %94, i32 0, i32 1
  store i32 1, ptr %95, align 4
  %96 = load ptr, ptr %8, align 8
  %97 = load ptr, ptr %12, align 8
  %98 = getelementptr inbounds %struct.H5VL_loc_params_t, ptr %97, i32 0, i32 2
  %99 = getelementptr inbounds %struct.H5VL_loc_by_name, ptr %98, i32 0, i32 0
  store ptr %96, ptr %99, align 8
  %100 = load i64, ptr %10, align 8
  %101 = load ptr, ptr %12, align 8
  %102 = getelementptr inbounds %struct.H5VL_loc_params_t, ptr %101, i32 0, i32 2
  %103 = getelementptr inbounds %struct.H5VL_loc_by_name, ptr %102, i32 0, i32 1
  store i64 %100, ptr %103, align 8
  %104 = load i64, ptr %7, align 8
  %105 = call i32 @H5I_get_type(i64 noundef %104)
  %106 = load ptr, ptr %12, align 8
  %107 = getelementptr inbounds %struct.H5VL_loc_params_t, ptr %106, i32 0, i32 0
  store i32 %105, ptr %107, align 8
  br label %108

108:                                              ; preds = %93, %90, %70, %49, %30
  %109 = load i32, ptr %13, align 4
  ret i32 %109
}