; Function Attrs: nounwind uwtable
define range(i32 -1, 1) i32 @H5VL_setup_name_args(i64 noundef %0, ptr noundef %1, i1 noundef zeroext %2, i64 noundef %3, ptr nocapture noundef writeonly %4, ptr nocapture noundef writeonly %5) local_unnamed_addr #0 {
  %7 = alloca i64, align 8
  store i64 %3, ptr %7, align 8
  %.not = icmp eq ptr %1, null
  br i1 %.not, label %8, label %12

8:                                                ; preds = %6
  %9 = load i64, ptr @H5E_ARGS_g, align 8
  %10 = load i64, ptr @H5E_BADVALUE_g, align 8
  %11 = tail call i32 (ptr, ptr, i32, i64, i64, ptr, ...) @H5E_printf_stack(ptr noundef nonnull @.str.2, ptr noundef nonnull @__func__.H5VL_setup_name_args, i32 noundef 2667, i64 noundef %9, i64 noundef %10, ptr noundef nonnull @.str.97) #10
  br label %38

12:                                               ; preds = %6
  %13 = load i8, ptr %1, align 1
  %.not17 = icmp eq i8 %13, 0
  br i1 %.not17, label %14, label %18

14:                                               ; preds = %12
  %15 = load i64, ptr @H5E_ARGS_g, align 8
  %16 = load i64, ptr @H5E_BADVALUE_g, align 8
  %17 = tail call i32 (ptr, ptr, i32, i64, i64, ptr, ...) @H5E_printf_stack(ptr noundef nonnull @.str.2, ptr noundef nonnull @__func__.H5VL_setup_name_args, i32 noundef 2669, i64 noundef %15, i64 noundef %16, ptr noundef nonnull @.str.98) #10
  br label %38

18:                                               ; preds = %12
  %19 = call i32 @H5CX_set_apl(ptr noundef nonnull %7, ptr noundef nonnull @H5P_CLS_LACC, i64 noundef %0, i1 noundef zeroext %2) #10
  %20 = icmp slt i32 %19, 0
  br i1 %20, label %21, label %25

21:                                               ; preds = %18
  %22 = load i64, ptr @H5E_VOL_g, align 8
  %23 = load i64, ptr @H5E_CANTSET_g, align 8
  %24 = call i32 (ptr, ptr, i32, i64, i64, ptr, ...) @H5E_printf_stack(ptr noundef nonnull @.str.2, ptr noundef nonnull @__func__.H5VL_setup_name_args, i32 noundef 2673, i64 noundef %22, i64 noundef %23, ptr noundef nonnull @.str.96) #10
  br label %38

25:                                               ; preds = %18
  %26 = call ptr @H5VL_vol_object(i64 noundef %0)
  store ptr %26, ptr %4, align 8
  %27 = icmp eq ptr %26, null
  br i1 %27, label %28, label %32

28:                                               ; preds = %25
  %29 = load i64, ptr @H5E_ARGS_g, align 8
  %30 = load i64, ptr @H5E_BADTYPE_g, align 8
  %31 = call i32 (ptr, ptr, i32, i64, i64, ptr, ...) @H5E_printf_stack(ptr noundef nonnull @.str.2, ptr noundef nonnull @__func__.H5VL_setup_name_args, i32 noundef 2677, i64 noundef %29, i64 noundef %30, ptr noundef nonnull @.str.70) #10
  br label %38

32:                                               ; preds = %25
  %33 = getelementptr inbounds i8, ptr %5, i64 4
  store i32 1, ptr %33, align 4
  %34 = getelementptr inbounds i8, ptr %5, i64 8
  store ptr %1, ptr %34, align 8
  %35 = load i64, ptr %7, align 8
  %36 = getelementptr inbounds i8, ptr %5, i64 16
  store i64 %35, ptr %36, align 8
  %37 = call i32 @H5I_get_type(i64 noundef %0) #10
  store i32 %37, ptr %5, align 8
  br label %38

38:                                               ; preds = %32, %28, %21, %14, %8
  %.0 = phi i32 [ -1, %21 ], [ -1, %28 ], [ 0, %32 ], [ -1, %14 ], [ -1, %8 ]
  ret i32 %.0
}